target datalayout = "e-m:e-p270:32:32-p271:32:32-p272:64:64-i64:64-i128:128-f80:128-n8:16:32:64-S128"
target triple = "x86_64-pc-linux-gnu"

%struct._packet_info = type { ptr, ptr, i32, i32, %struct.nstime_t, %struct.nstime_t, %struct.nstime_t, i32, ptr, ptr, ptr, ptr, %struct._address, %struct._address, %struct._address, %struct._address, %struct._address, %struct._address, i32, ptr, i32, %struct.anon, i32, i32, i32, i32, ptr, i32, ptr, ptr, i16, i16, i32, i32, i16, i32, i32, ptr, ptr, ptr, i8, i8, i16, i16, i16, i32, i16, i16, ptr, ptr, ptr, ptr, ptr, i32 }
%struct.nstime_t = type { i64, i32 }
%struct._address = type { i32, i32, ptr, ptr }
%struct.anon = type { i8, [3 x i8] }
%struct._gcp_msg_t = type { i32, i32, i32, %struct.nstime_t, ptr, i32 }
%struct._gcp_trx_t = type { ptr, i32, i32, i32, ptr, ptr, i32 }
%struct._gcp_ctx_t = type { ptr, i32, ptr, ptr, %struct._gcp_terms_t }
%struct._gcp_terms_t = type { ptr, ptr, ptr }
%struct._gcp_cmd_msg_t = type { ptr, ptr, ptr }
%struct._gcp_cmd_t = type { i32, ptr, i32, %struct._gcp_terms_t, ptr, ptr, ptr, i32 }

@.str.26 = private unnamed_addr constant [30 x i8] c"epan/dissectors/packet-h248.c\00", align 1
@.str.27 = private unnamed_addr constant [29 x i8] c"%s:%u: failed assertion \22%s\22\00", align 1
@.str.30 = private unnamed_addr constant [22 x i8] c"t->cmds != ((void*)0)\00", align 1
@.str.31 = private unnamed_addr constant [45 x i8] c"!\22called for a command that does not exist!\22\00", align 1
@.str.32 = private unnamed_addr constant [8 x i8] c"Unknown\00", align 1

; Function Attrs: nounwind uwtable
define hidden ptr @gcp_cmd(ptr noundef %0, ptr noundef %1, ptr noundef %2, i32 noundef %3, i32 noundef %4, ptr noundef %5, i32 noundef %6) #0 {
  %8 = alloca ptr, align 8
  %9 = alloca ptr, align 8
  %10 = alloca ptr, align 8
  %11 = alloca ptr, align 8
  %12 = alloca i32, align 4
  %13 = alloca i32, align 4
  %14 = alloca ptr, align 8
  %15 = alloca i32, align 4
  %16 = alloca ptr, align 8
  %17 = alloca ptr, align 8
  %18 = alloca ptr, align 8
  store ptr %0, ptr %9, align 8
  store ptr %1, ptr %10, align 8
  store ptr %2, ptr %11, align 8
  store i32 %3, ptr %12, align 4
  store i32 %4, ptr %13, align 4
  store ptr %5, ptr %14, align 8
  store i32 %6, ptr %15, align 4
  %19 = load ptr, ptr %9, align 8
  %20 = icmp ne ptr %19, null
  br i1 %20, label %21, label %27

21:                                               ; preds = %7
  %22 = load ptr, ptr %10, align 8
  %23 = icmp ne ptr %22, null
  br i1 %23, label %24, label %27

24:                                               ; preds = %21
  %25 = load ptr, ptr %11, align 8
  %26 = icmp ne ptr %25, null
  br i1 %26, label %28, label %27

27:                                               ; preds = %24, %21, %7
  store ptr null, ptr %8, align 8
  br label %205

28:                                               ; preds = %24
  %29 = load i32, ptr %15, align 4
  %30 = icmp ne i32 %29, 0
  br i1 %30, label %31, label %82

31:                                               ; preds = %28
  %32 = load ptr, ptr %9, align 8
  %33 = getelementptr inbounds %struct._gcp_msg_t, ptr %32, i32 0, i32 5
  %34 = load i32, ptr %33, align 8
  %35 = icmp ne i32 %34, 0
  br i1 %35, label %36, label %74

36:                                               ; preds = %31
  %37 = load ptr, ptr %10, align 8
  %38 = getelementptr inbounds %struct._gcp_trx_t, ptr %37, i32 0, i32 4
  %39 = load ptr, ptr %38, align 8
  %40 = icmp ne ptr %39, null
  br i1 %40, label %41, label %42

41:                                               ; preds = %36
  br label %44

42:                                               ; preds = %36
  call void (ptr, ...) @proto_report_dissector_bug(ptr noundef @.str.27, ptr noundef @.str.26, i32 noundef 869, ptr noundef @.str.30) #7
  unreachable

43:                                               ; No predecessors!
  br label %44

44:                                               ; preds = %43, %41
  %45 = load ptr, ptr %10, align 8
  %46 = getelementptr inbounds %struct._gcp_trx_t, ptr %45, i32 0, i32 4
  %47 = load ptr, ptr %46, align 8
  store ptr %47, ptr %18, align 8
  br label %48

48:                                               ; preds = %69, %44
  %49 = load ptr, ptr %18, align 8
  %50 = icmp ne ptr %49, null
  br i1 %50, label %51, label %73

51:                                               ; preds = %48
  %52 = load ptr, ptr %18, align 8
  %53 = getelementptr inbounds %struct._gcp_cmd_msg_t, ptr %52, i32 0, i32 0
  %54 = load ptr, ptr %53, align 8
  store ptr %54, ptr %16, align 8
  %55 = load ptr, ptr %16, align 8
  %56 = getelementptr inbounds %struct._gcp_cmd_t, ptr %55, i32 0, i32 4
  %57 = load ptr, ptr %56, align 8
  %58 = load ptr, ptr %9, align 8
  %59 = icmp eq ptr %57, %58
  br i1 %59, label %60, label %68

60:                                               ; preds = %51
  %61 = load ptr, ptr %16, align 8
  %62 = getelementptr inbounds %struct._gcp_cmd_t, ptr %61, i32 0, i32 0
  %63 = load i32, ptr %62, align 8
  %64 = load i32, ptr %13, align 4
  %65 = icmp eq i32 %63, %64
  br i1 %65, label %66, label %68

66:                                               ; preds = %60
  %67 = load ptr, ptr %16, align 8
  store ptr %67, ptr %8, align 8
  br label %205

68:                                               ; preds = %60, %51
  br label %69

69:                                               ; preds = %68
  %70 = load ptr, ptr %18, align 8
  %71 = getelementptr inbounds %struct._gcp_cmd_msg_t, ptr %70, i32 0, i32 1
  %72 = load ptr, ptr %71, align 8
  store ptr %72, ptr %18, align 8
  br label %48, !llvm.loop !7

73:                                               ; preds = %48
  call void (ptr, ...) @proto_report_dissector_bug(ptr noundef @.str.27, ptr noundef @.str.26, i32 noundef 878, ptr noundef @.str.31) #7
  unreachable

74:                                               ; preds = %31
  %75 = call ptr @wmem_file_scope()
  %76 = call noalias ptr @wmem_alloc(ptr noundef %75, i64 noundef 80)
  store ptr %76, ptr %16, align 8
  %77 = call ptr @wmem_file_scope()
  %78 = call noalias ptr @wmem_alloc(ptr noundef %77, i64 noundef 24)
  store ptr %78, ptr %17, align 8
  %79 = call ptr @wmem_file_scope()
  %80 = call noalias ptr @wmem_alloc(ptr noundef %79, i64 noundef 24)
  store ptr %80, ptr %18, align 8
  br label %81

81:                                               ; preds = %74
  br label %95

82:                                               ; preds = %28
  %83 = load ptr, ptr %14, align 8
  %84 = getelementptr inbounds %struct._packet_info, ptr %83, i32 0, i32 50
  %85 = load ptr, ptr %84, align 8
  %86 = call noalias ptr @wmem_alloc(ptr noundef %85, i64 noundef 80)
  store ptr %86, ptr %16, align 8
  %87 = load ptr, ptr %14, align 8
  %88 = getelementptr inbounds %struct._packet_info, ptr %87, i32 0, i32 50
  %89 = load ptr, ptr %88, align 8
  %90 = call noalias ptr @wmem_alloc(ptr noundef %89, i64 noundef 24)
  store ptr %90, ptr %17, align 8
  %91 = load ptr, ptr %14, align 8
  %92 = getelementptr inbounds %struct._packet_info, ptr %91, i32 0, i32 50
  %93 = load ptr, ptr %92, align 8
  %94 = call noalias ptr @wmem_alloc(ptr noundef %93, i64 noundef 24)
  store ptr %94, ptr %18, align 8
  br label %95

95:                                               ; preds = %82, %81
  %96 = load i32, ptr %12, align 4
  %97 = load ptr, ptr %16, align 8
  %98 = getelementptr inbounds %struct._gcp_cmd_t, ptr %97, i32 0, i32 2
  store i32 %96, ptr %98, align 8
  %99 = load i32, ptr %13, align 4
  %100 = load ptr, ptr %16, align 8
  %101 = getelementptr inbounds %struct._gcp_cmd_t, ptr %100, i32 0, i32 0
  store i32 %99, ptr %101, align 8
  %102 = load ptr, ptr %16, align 8
  %103 = getelementptr inbounds %struct._gcp_cmd_t, ptr %102, i32 0, i32 3
  %104 = getelementptr inbounds %struct._gcp_terms_t, ptr %103, i32 0, i32 0
  store ptr null, ptr %104, align 8
  %105 = load ptr, ptr %16, align 8
  %106 = getelementptr inbounds %struct._gcp_cmd_t, ptr %105, i32 0, i32 3
  %107 = getelementptr inbounds %struct._gcp_terms_t, ptr %106, i32 0, i32 1
  store ptr null, ptr %107, align 8
  %108 = load ptr, ptr %16, align 8
  %109 = getelementptr inbounds %struct._gcp_cmd_t, ptr %108, i32 0, i32 3
  %110 = load ptr, ptr %16, align 8
  %111 = getelementptr inbounds %struct._gcp_cmd_t, ptr %110, i32 0, i32 3
  %112 = getelementptr inbounds %struct._gcp_terms_t, ptr %111, i32 0, i32 2
  store ptr %109, ptr %112, align 8
  %113 = load ptr, ptr %16, align 8
  %114 = getelementptr inbounds %struct._gcp_cmd_t, ptr %113, i32 0, i32 1
  store ptr null, ptr %114, align 8
  %115 = load ptr, ptr %9, align 8
  %116 = load ptr, ptr %16, align 8
  %117 = getelementptr inbounds %struct._gcp_cmd_t, ptr %116, i32 0, i32 4
  store ptr %115, ptr %117, align 8
  %118 = load i32, ptr %12, align 4
  %119 = icmp ne i32 %118, 0
  br i1 %119, label %120, label %128

120:                                              ; preds = %95
  %121 = load i32, ptr %15, align 4
  %122 = icmp ne i32 %121, 0
  br i1 %122, label %128, label %123

123:                                              ; preds = %120
  %124 = load i32, ptr %12, align 4
  %125 = call ptr @val_to_str_const(i32 noundef %124, ptr noundef @gcp_cmd_type, ptr noundef @.str.32)
  %126 = load ptr, ptr %16, align 8
  %127 = getelementptr inbounds %struct._gcp_cmd_t, ptr %126, i32 0, i32 1
  store ptr %125, ptr %127, align 8
  br label %128

128:                                              ; preds = %123, %120, %95
  %129 = load ptr, ptr %10, align 8
  %130 = load ptr, ptr %16, align 8
  %131 = getelementptr inbounds %struct._gcp_cmd_t, ptr %130, i32 0, i32 5
  store ptr %129, ptr %131, align 8
  %132 = load ptr, ptr %11, align 8
  %133 = load ptr, ptr %16, align 8
  %134 = getelementptr inbounds %struct._gcp_cmd_t, ptr %133, i32 0, i32 6
  store ptr %132, ptr %134, align 8
  %135 = load ptr, ptr %16, align 8
  %136 = getelementptr inbounds %struct._gcp_cmd_t, ptr %135, i32 0, i32 7
  store i32 0, ptr %136, align 8
  %137 = load ptr, ptr %16, align 8
  %138 = load ptr, ptr %17, align 8
  %139 = getelementptr inbounds %struct._gcp_cmd_msg_t, ptr %138, i32 0, i32 0
  store ptr %137, ptr %139, align 8
  %140 = load ptr, ptr %18, align 8
  %141 = getelementptr inbounds %struct._gcp_cmd_msg_t, ptr %140, i32 0, i32 0
  store ptr %137, ptr %141, align 8
  %142 = load ptr, ptr %17, align 8
  %143 = getelementptr inbounds %struct._gcp_cmd_msg_t, ptr %142, i32 0, i32 1
  store ptr null, ptr %143, align 8
  %144 = load ptr, ptr %18, align 8
  %145 = getelementptr inbounds %struct._gcp_cmd_msg_t, ptr %144, i32 0, i32 1
  store ptr null, ptr %145, align 8
  %146 = load ptr, ptr %17, align 8
  %147 = getelementptr inbounds %struct._gcp_cmd_msg_t, ptr %146, i32 0, i32 2
  store ptr null, ptr %147, align 8
  %148 = load ptr, ptr %18, align 8
  %149 = getelementptr inbounds %struct._gcp_cmd_msg_t, ptr %148, i32 0, i32 2
  store ptr null, ptr %149, align 8
  %150 = load ptr, ptr %10, align 8
  %151 = getelementptr inbounds %struct._gcp_trx_t, ptr %150, i32 0, i32 4
  %152 = load ptr, ptr %151, align 8
  %153 = icmp ne ptr %152, null
  br i1 %153, label %154, label %167

154:                                              ; preds = %128
  %155 = load ptr, ptr %17, align 8
  %156 = load ptr, ptr %10, align 8
  %157 = getelementptr inbounds %struct._gcp_trx_t, ptr %156, i32 0, i32 4
  %158 = load ptr, ptr %157, align 8
  %159 = getelementptr inbounds %struct._gcp_cmd_msg_t, ptr %158, i32 0, i32 2
  %160 = load ptr, ptr %159, align 8
  %161 = getelementptr inbounds %struct._gcp_cmd_msg_t, ptr %160, i32 0, i32 1
  store ptr %155, ptr %161, align 8
  %162 = load ptr, ptr %17, align 8
  %163 = load ptr, ptr %10, align 8
  %164 = getelementptr inbounds %struct._gcp_trx_t, ptr %163, i32 0, i32 4
  %165 = load ptr, ptr %164, align 8
  %166 = getelementptr inbounds %struct._gcp_cmd_msg_t, ptr %165, i32 0, i32 2
  store ptr %162, ptr %166, align 8
  br label %176

167:                                              ; preds = %128
  %168 = load ptr, ptr %17, align 8
  %169 = load ptr, ptr %10, align 8
  %170 = getelementptr inbounds %struct._gcp_trx_t, ptr %169, i32 0, i32 4
  store ptr %168, ptr %170, align 8
  %171 = load ptr, ptr %17, align 8
  %172 = load ptr, ptr %10, align 8
  %173 = getelementptr inbounds %struct._gcp_trx_t, ptr %172, i32 0, i32 4
  %174 = load ptr, ptr %173, align 8
  %175 = getelementptr inbounds %struct._gcp_cmd_msg_t, ptr %174, i32 0, i32 2
  store ptr %171, ptr %175, align 8
  br label %176

176:                                              ; preds = %167, %154
  %177 = load ptr, ptr %11, align 8
  %178 = getelementptr inbounds %struct._gcp_ctx_t, ptr %177, i32 0, i32 2
  %179 = load ptr, ptr %178, align 8
  %180 = icmp ne ptr %179, null
  br i1 %180, label %181, label %194

181:                                              ; preds = %176
  %182 = load ptr, ptr %18, align 8
  %183 = load ptr, ptr %11, align 8
  %184 = getelementptr inbounds %struct._gcp_ctx_t, ptr %183, i32 0, i32 2
  %185 = load ptr, ptr %184, align 8
  %186 = getelementptr inbounds %struct._gcp_cmd_msg_t, ptr %185, i32 0, i32 2
  %187 = load ptr, ptr %186, align 8
  %188 = getelementptr inbounds %struct._gcp_cmd_msg_t, ptr %187, i32 0, i32 1
  store ptr %182, ptr %188, align 8
  %189 = load ptr, ptr %18, align 8
  %190 = load ptr, ptr %11, align 8
  %191 = getelementptr inbounds %struct._gcp_ctx_t, ptr %190, i32 0, i32 2
  %192 = load ptr, ptr %191, align 8
  %193 = getelementptr inbounds %struct._gcp_cmd_msg_t, ptr %192, i32 0, i32 2
  store ptr %189, ptr %193, align 8
  br label %203

194:                                              ; preds = %176
  %195 = load ptr, ptr %18, align 8
  %196 = load ptr, ptr %11, align 8
  %197 = getelementptr inbounds %struct._gcp_ctx_t, ptr %196, i32 0, i32 2
  store ptr %195, ptr %197, align 8
  %198 = load ptr, ptr %18, align 8
  %199 = load ptr, ptr %11, align 8
  %200 = getelementptr inbounds %struct._gcp_ctx_t, ptr %199, i32 0, i32 2
  %201 = load ptr, ptr %200, align 8
  %202 = getelementptr inbounds %struct._gcp_cmd_msg_t, ptr %201, i32 0, i32 2
  store ptr %198, ptr %202, align 8
  br label %203

203:                                              ; preds = %194, %181
  %204 = load ptr, ptr %16, align 8
  store ptr %204, ptr %8, align 8
  br label %205

205:                                              ; preds = %203, %66, %27
  %206 = load ptr, ptr %8, align 8
  ret ptr %206
}