; Function Attrs: nounwind uwtable
define hidden ptr @gcp_cmd(ptr noundef %0, ptr noundef %1, ptr noundef %2, i32 noundef %3, i32 noundef %4, ptr noundef readonly captures(none) %5, i32 noundef %6) local_unnamed_addr #0 {
  %8 = icmp ne ptr %0, null
  %9 = icmp ne ptr %1, null
  %or.cond = and i1 %8, %9
  %10 = icmp ne ptr %2, null
  %or.cond3 = and i1 %or.cond, %10
  br i1 %or.cond3, label %11, label %.loopexit

11:                                               ; preds = %7
  %12 = icmp ne i32 %6, 0
  br i1 %12, label %13, label %37

13:                                               ; preds = %11
  %14 = getelementptr inbounds nuw i8, ptr %0, i64 40
  %15 = load i32, ptr %14, align 8
  %.not = icmp eq i32 %15, 0
  br i1 %.not, label %31, label %16

16:                                               ; preds = %13
  %17 = getelementptr inbounds nuw i8, ptr %1, i64 24
  %18 = load ptr, ptr %17, align 8
  %.not81 = icmp eq ptr %18, null
  br i1 %.not81, label %19, label %.preheader

19:                                               ; preds = %16
  tail call void (ptr, ...) @proto_report_dissector_bug(ptr noundef nonnull @.str.27, ptr noundef nonnull @.str.26, i32 noundef 869, ptr noundef nonnull @.str.30) #9
  unreachable

.preheader:                                       ; preds = %16, %27
  %.083 = phi ptr [ %29, %27 ], [ %18, %16 ]
  %20 = load ptr, ptr %.083, align 8
  %21 = getelementptr inbounds nuw i8, ptr %20, i64 48
  %22 = load ptr, ptr %21, align 8
  %23 = icmp eq ptr %22, %0
  br i1 %23, label %24, label %27

24:                                               ; preds = %.preheader
  %25 = load i32, ptr %20, align 8
  %26 = icmp eq i32 %25, %4
  br i1 %26, label %.loopexit, label %27

27:                                               ; preds = %.preheader, %24
  %28 = getelementptr inbounds nuw i8, ptr %.083, i64 8
  %29 = load ptr, ptr %28, align 8
  %.not82 = icmp eq ptr %29, null
  br i1 %.not82, label %30, label %.preheader, !llvm.loop !7

30:                                               ; preds = %27
  tail call void (ptr, ...) @proto_report_dissector_bug(ptr noundef nonnull @.str.27, ptr noundef nonnull @.str.26, i32 noundef 878, ptr noundef nonnull @.str.31) #9
  unreachable

31:                                               ; preds = %13
  %32 = tail call ptr @wmem_file_scope() #7
  %33 = tail call noalias ptr @wmem_alloc(ptr noundef %32, i64 noundef 80) #7
  %34 = tail call ptr @wmem_file_scope() #7
  %35 = tail call noalias ptr @wmem_alloc(ptr noundef %34, i64 noundef 24) #7
  %36 = tail call ptr @wmem_file_scope() #7
  br label %44

37:                                               ; preds = %11
  %38 = getelementptr inbounds nuw i8, ptr %5, i64 408
  %39 = load ptr, ptr %38, align 8
  %40 = tail call noalias ptr @wmem_alloc(ptr noundef %39, i64 noundef 80) #7
  %41 = load ptr, ptr %38, align 8
  %42 = tail call noalias ptr @wmem_alloc(ptr noundef %41, i64 noundef 24) #7
  %43 = load ptr, ptr %38, align 8
  br label %44

44:                                               ; preds = %37, %31
  %.sink = phi ptr [ %43, %37 ], [ %36, %31 ]
  %.070 = phi ptr [ %40, %37 ], [ %33, %31 ]
  %.069 = phi ptr [ %42, %37 ], [ %35, %31 ]
  %45 = tail call noalias ptr @wmem_alloc(ptr noundef %.sink, i64 noundef 24) #7
  %46 = getelementptr inbounds nuw i8, ptr %.070, i64 16
  store i32 %3, ptr %46, align 8
  store i32 %4, ptr %.070, align 8
  %47 = getelementptr inbounds nuw i8, ptr %.070, i64 24
  %48 = getelementptr inbounds nuw i8, ptr %.070, i64 40
  tail call void @llvm.memset.p0.i64(ptr noundef nonnull align 8 dereferenceable(16) %47, i8 0, i64 16, i1 false)
  store ptr %47, ptr %48, align 8
  %49 = getelementptr inbounds nuw i8, ptr %.070, i64 8
  store ptr null, ptr %49, align 8
  %50 = getelementptr inbounds nuw i8, ptr %.070, i64 48
  store ptr %0, ptr %50, align 8
  %51 = icmp eq i32 %3, 0
  %or.cond5 = or i1 %51, %12
  br i1 %or.cond5, label %54, label %52

52:                                               ; preds = %44
  %53 = tail call ptr @val_to_str_const(i32 noundef %3, ptr noundef nonnull @gcp_cmd_type, ptr noundef nonnull @.str.32) #7
  store ptr %53, ptr %49, align 8
  br label %54

54:                                               ; preds = %52, %44
  %55 = getelementptr inbounds nuw i8, ptr %.070, i64 56
  store ptr %1, ptr %55, align 8
  %56 = getelementptr inbounds nuw i8, ptr %.070, i64 64
  store ptr %2, ptr %56, align 8
  %57 = getelementptr inbounds nuw i8, ptr %.070, i64 72
  store i32 0, ptr %57, align 8
  store ptr %.070, ptr %.069, align 8
  store ptr %.070, ptr %45, align 8
  %58 = getelementptr inbounds nuw i8, ptr %.069, i64 8
  store ptr null, ptr %58, align 8
  %59 = getelementptr inbounds nuw i8, ptr %45, i64 8
  store ptr null, ptr %59, align 8
  %60 = getelementptr inbounds nuw i8, ptr %.069, i64 16
  store ptr null, ptr %60, align 8
  %61 = getelementptr inbounds nuw i8, ptr %45, i64 16
  store ptr null, ptr %61, align 8
  %62 = getelementptr inbounds nuw i8, ptr %1, i64 24
  %63 = load ptr, ptr %62, align 8
  %.not79 = icmp eq ptr %63, null
  br i1 %.not79, label %70, label %64

64:                                               ; preds = %54
  %65 = getelementptr inbounds nuw i8, ptr %63, i64 16
  %66 = load ptr, ptr %65, align 8
  %67 = getelementptr inbounds nuw i8, ptr %66, i64 8
  store ptr %.069, ptr %67, align 8
  %68 = load ptr, ptr %62, align 8
  %69 = getelementptr inbounds nuw i8, ptr %68, i64 16
  store ptr %.069, ptr %69, align 8
  br label %71

70:                                               ; preds = %54
  store ptr %.069, ptr %62, align 8
  store ptr %.069, ptr %60, align 8
  br label %71

71:                                               ; preds = %70, %64
  %72 = getelementptr inbounds nuw i8, ptr %2, i64 16
  %73 = load ptr, ptr %72, align 8
  %.not80 = icmp eq ptr %73, null
  br i1 %.not80, label %80, label %74

74:                                               ; preds = %71
  %75 = getelementptr inbounds nuw i8, ptr %73, i64 16
  %76 = load ptr, ptr %75, align 8
  %77 = getelementptr inbounds nuw i8, ptr %76, i64 8
  store ptr %45, ptr %77, align 8
  %78 = load ptr, ptr %72, align 8
  %79 = getelementptr inbounds nuw i8, ptr %78, i64 16
  store ptr %45, ptr %79, align 8
  br label %.loopexit

80:                                               ; preds = %71
  store ptr %45, ptr %72, align 8
  store ptr %45, ptr %61, align 8
  br label %.loopexit

.loopexit:                                        ; preds = %24, %74, %80, %7
  %.071 = phi ptr [ null, %7 ], [ %.070, %80 ], [ %.070, %74 ], [ %20, %24 ]
  ret ptr %.071
}